target datalayout = "e-m:e-p270:32:32-p271:32:32-p272:64:64-i64:64-i128:128-f80:128-n8:16:32:64-S128"
target triple = "x86_64-pc-linux-gnu"

%struct.strbuf = type { i64, i64, ptr }

@.str.10 = private unnamed_addr constant [3 x i8] c"%s\00", align 1
@.str.135 = private unnamed_addr constant [2 x i8] c"r\00", align 1
@__const.read_line_from_git_path.buf = private unnamed_addr constant %struct.strbuf { i64 0, i64 0, ptr @strbuf_slopbuf }, align 8

; Function Attrs: nounwind uwtable
define internal ptr @read_line_from_git_path(ptr noundef %0) #0 {
  %2 = alloca ptr, align 8
  %3 = alloca ptr, align 8
  %4 = alloca %struct.strbuf, align 8
  %5 = alloca ptr, align 8
  %6 = alloca i32, align 4
  store ptr %0, ptr %3, align 8, !tbaa !9
  call void @llvm.lifetime.start.p0(i64 24, ptr %4) #12
  call void @llvm.memcpy.p0.p0.i64(ptr align 8 %4, ptr align 8 @__const.read_line_from_git_path.buf, i64 24, i1 false)
  call void @llvm.lifetime.start.p0(i64 8, ptr %5) #12
  %7 = load ptr, ptr %3, align 8, !tbaa !9
  %8 = call ptr (ptr, ...) @git_path(ptr noundef @.str.10, ptr noundef %7)
  %9 = call ptr @fopen_or_warn(ptr noundef %8, ptr noundef @.str.135)
  store ptr %9, ptr %5, align 8, !tbaa !40
  %10 = load ptr, ptr %5, align 8, !tbaa !40
  %11 = icmp ne ptr %10, null
  br i1 %11, label %13, label %12

12:                                               ; preds = %1
  call void @strbuf_release(ptr noundef %4)
  store ptr null, ptr %2, align 8
  store i32 1, ptr %6, align 4
  br label %22

13:                                               ; preds = %1
  %14 = load ptr, ptr %5, align 8, !tbaa !40
  %15 = call i32 @strbuf_getline_lf(ptr noundef %4, ptr noundef %14)
  %16 = load ptr, ptr %5, align 8, !tbaa !40
  %17 = call i32 @fclose(ptr noundef %16)
  %18 = icmp ne i32 %17, 0
  br i1 %18, label %21, label %19

19:                                               ; preds = %13
  %20 = call ptr @strbuf_detach(ptr noundef %4, ptr noundef null)
  store ptr %20, ptr %2, align 8
  store i32 1, ptr %6, align 4
  br label %22

21:                                               ; preds = %13
  call void @strbuf_release(ptr noundef %4)
  store ptr null, ptr %2, align 8
  store i32 1, ptr %6, align 4
  br label %22

22:                                               ; preds = %21, %19, %12
  call void @llvm.lifetime.end.p0(i64 8, ptr %5) #12
  call void @llvm.lifetime.end.p0(i64 24, ptr %4) #12
  %23 = load ptr, ptr %2, align 8
  ret ptr %23
}