; Function Attrs: nounwind uwtable
define internal fastcc ptr @read_line_from_git_path(ptr noundef %0) unnamed_addr #0 {
  %2 = alloca %struct.strbuf, align 8
  call void @llvm.lifetime.start.p0(i64 24, ptr nonnull %2) #20
  call void @llvm.memcpy.p0.p0.i64(ptr noundef nonnull align 8 dereferenceable(24) %2, ptr noundef nonnull align 8 dereferenceable(24) @__const.wt_longstatus_print_other.buf, i64 24, i1 false)
  %3 = tail call ptr (ptr, ...) @git_path(ptr noundef nonnull @.str.10, ptr noundef %0)
  %4 = tail call ptr @fopen_or_warn(ptr noundef %3, ptr noundef nonnull @.str.135) #20
  %.not = icmp eq ptr %4, null
  br i1 %.not, label %5, label %6

5:                                                ; preds = %1
  call void @strbuf_release(ptr noundef nonnull %2) #20
  br label %12

6:                                                ; preds = %1
  %7 = call i32 @strbuf_getline_lf(ptr noundef nonnull %2, ptr noundef nonnull %4) #20
  %8 = call i32 @fclose(ptr noundef nonnull %4)
  %.not6 = icmp eq i32 %8, 0
  br i1 %.not6, label %9, label %11

9:                                                ; preds = %6
  %10 = call ptr @strbuf_detach(ptr noundef nonnull %2, ptr noundef null) #20
  br label %12

11:                                               ; preds = %6
  call void @strbuf_release(ptr noundef nonnull %2) #20
  br label %12

12:                                               ; preds = %11, %9, %5
  %.0 = phi ptr [ null, %11 ], [ %10, %9 ], [ null, %5 ]
  call void @llvm.lifetime.end.p0(i64 24, ptr nonnull %2) #20
  ret ptr %.0
}